ARM GAS  C:\Users\22482\AppData\Local\Temp\ccD7kKz3.s 			page 1


   1              		.cpu cortex-m3
   2              		.arch armv7-m
   3              		.fpu softvfp
   4              		.eabi_attribute 20, 1
   5              		.eabi_attribute 21, 1
   6              		.eabi_attribute 23, 3
   7              		.eabi_attribute 24, 1
   8              		.eabi_attribute 25, 1
   9              		.eabi_attribute 26, 1
  10              		.eabi_attribute 30, 1
  11              		.eabi_attribute 34, 1
  12              		.eabi_attribute 18, 4
  13              		.file	"jy62.c"
  14              		.text
  15              	.Ltext0:
  16              		.cfi_sections	.debug_frame
  17              		.section	.text.jy62_Init,"ax",%progbits
  18              		.align	1
  19              		.global	jy62_Init
  20              		.syntax unified
  21              		.thumb
  22              		.thumb_func
  24              	jy62_Init:
  25              	.LVL0:
  26              	.LFB65:
  27              		.file 1 "Core/Src/jy62.c"
   1:Core/Src/jy62.c **** /*-------------------------jy62.c----------------------------*/
   2:Core/Src/jy62.c **** #include "jy62.h"
   3:Core/Src/jy62.c **** 
   4:Core/Src/jy62.c **** volatile uint8_t jy62Receive[JY62_MESSAGE_LENGTH];  //实时记录收到的信息
   5:Core/Src/jy62.c **** volatile uint8_t jy62Message[JY62_MESSAGE_LENGTH];   //确认无误后用于解码的信息
   6:Core/Src/jy62.c **** uint8_t initAngle[3] = {0xFF, 0xAA, 0x52};     
   7:Core/Src/jy62.c **** uint8_t calibrateAcce[3] = {0xFF, 0xAA, 0x67}; 
   8:Core/Src/jy62.c **** uint8_t setBaud115200[3] = {0xFF, 0xAA, 0x63}; 
   9:Core/Src/jy62.c **** uint8_t setBaud9600[3] = {0xFF, 0xAA, 0x64};    
  10:Core/Src/jy62.c **** uint8_t setHorizontal[3] = {0xFF, 0xAA, 0x65};  
  11:Core/Src/jy62.c **** uint8_t setVertical[3] = {0xFF, 0xAA, 0x66};
  12:Core/Src/jy62.c **** uint8_t sleepAndAwake[3] = {0xFF, 0xAA, 0x60};
  13:Core/Src/jy62.c **** UART_HandleTypeDef* jy62_huart;
  14:Core/Src/jy62.c **** 
  15:Core/Src/jy62.c **** struct Acce Accelerate;//储存加速度
  16:Core/Src/jy62.c **** struct Velo Velocity;//储存角速度
  17:Core/Src/jy62.c **** struct Angl Angle;  //储存角度值
  18:Core/Src/jy62.c **** struct Temp Temperature;  //储存温度值
  19:Core/Src/jy62.c **** /***********************接口****************************/
  20:Core/Src/jy62.c **** 
  21:Core/Src/jy62.c **** void jy62_Init(UART_HandleTypeDef *huart)
  22:Core/Src/jy62.c **** {
  28              		.loc 1 22 1 view -0
  29              		.cfi_startproc
  30              		@ args = 0, pretend = 0, frame = 0
  31              		@ frame_needed = 0, uses_anonymous_args = 0
  32              		.loc 1 22 1 is_stmt 0 view .LVU1
  33 0000 08B5     		push	{r3, lr}
  34              	.LCFI0:
  35              		.cfi_def_cfa_offset 8
  36              		.cfi_offset 3, -8
ARM GAS  C:\Users\22482\AppData\Local\Temp\ccD7kKz3.s 			page 2


  37              		.cfi_offset 14, -4
  23:Core/Src/jy62.c ****   jy62_huart = huart;
  38              		.loc 1 23 3 is_stmt 1 view .LVU2
  39              		.loc 1 23 14 is_stmt 0 view .LVU3
  40 0002 034B     		ldr	r3, .L3
  41 0004 1860     		str	r0, [r3]
  24:Core/Src/jy62.c ****   HAL_UART_Receive_DMA(jy62_huart, jy62Receive, JY62_MESSAGE_LENGTH);
  42              		.loc 1 24 3 is_stmt 1 view .LVU4
  43 0006 0B22     		movs	r2, #11
  44 0008 0249     		ldr	r1, .L3+4
  45 000a FFF7FEFF 		bl	HAL_UART_Receive_DMA
  46              	.LVL1:
  25:Core/Src/jy62.c **** }
  47              		.loc 1 25 1 is_stmt 0 view .LVU5
  48 000e 08BD     		pop	{r3, pc}
  49              	.L4:
  50              		.align	2
  51              	.L3:
  52 0010 00000000 		.word	.LANCHOR0
  53 0014 00000000 		.word	.LANCHOR1
  54              		.cfi_endproc
  55              	.LFE65:
  57              		.section	.text.SetBaud,"ax",%progbits
  58              		.align	1
  59              		.global	SetBaud
  60              		.syntax unified
  61              		.thumb
  62              		.thumb_func
  64              	SetBaud:
  65              	.LVL2:
  66              	.LFB67:
  26:Core/Src/jy62.c **** 
  27:Core/Src/jy62.c **** void jy62MessageRecord(void)
  28:Core/Src/jy62.c **** {
  29:Core/Src/jy62.c ****   static uint8_t i = 0, sum = 0;
  30:Core/Src/jy62.c ****   for (int j = 0; j < JY62_MESSAGE_LENGTH; j++){
  31:Core/Src/jy62.c ****     if (i == 0 && jy62Receive[j] != 0x55) continue;
  32:Core/Src/jy62.c ****     if (i == 10){
  33:Core/Src/jy62.c ****         if (sum == jy62Receive[j]){
  34:Core/Src/jy62.c ****             jy62Message[i++] = jy62Receive[j];
  35:Core/Src/jy62.c ****             Decode();
  36:Core/Src/jy62.c ****         }
  37:Core/Src/jy62.c ****         i = 0;
  38:Core/Src/jy62.c ****         sum = 0;
  39:Core/Src/jy62.c ****         continue;
  40:Core/Src/jy62.c ****     }
  41:Core/Src/jy62.c ****     sum += jy62Receive[j];
  42:Core/Src/jy62.c ****     jy62Message[i++] = jy62Receive[j];
  43:Core/Src/jy62.c ****   }
  44:Core/Src/jy62.c ****   HAL_UART_Receive_DMA(jy62_huart, jy62Receive, JY62_MESSAGE_LENGTH);
  45:Core/Src/jy62.c **** }
  46:Core/Src/jy62.c **** /*
  47:Core/Src/jy62.c **** void jy62MessageRecord(void)
  48:Core/Src/jy62.c **** {
  49:Core/Src/jy62.c ****   if(jy62Receive[0] == 0x55)
  50:Core/Src/jy62.c ****   {
  51:Core/Src/jy62.c ****     uint8_t sum = 0x00;
ARM GAS  C:\Users\22482\AppData\Local\Temp\ccD7kKz3.s 			page 3


  52:Core/Src/jy62.c ****     for (int i = 0; i < JY62_MESSAGE_LENGTH - 1; i++)
  53:Core/Src/jy62.c ****     {
  54:Core/Src/jy62.c ****       sum += jy62Receive[i];
  55:Core/Src/jy62.c ****     }
  56:Core/Src/jy62.c ****     if(sum == jy62Receive[JY62_MESSAGE_LENGTH - 1])
  57:Core/Src/jy62.c ****     {
  58:Core/Src/jy62.c ****       for (int i = 0; i < JY62_MESSAGE_LENGTH; i++)
  59:Core/Src/jy62.c ****       {
  60:Core/Src/jy62.c ****         jy62Message[i] = jy62Receive[i];
  61:Core/Src/jy62.c ****       }
  62:Core/Src/jy62.c ****       Decode();
  63:Core/Src/jy62.c ****     }
  64:Core/Src/jy62.c ****   }
  65:Core/Src/jy62.c ****   HAL_UART_Receive_DMA(jy62_huart, jy62Receive, JY62_MESSAGE_LENGTH);
  66:Core/Src/jy62.c **** }
  67:Core/Src/jy62.c **** */
  68:Core/Src/jy62.c **** 
  69:Core/Src/jy62.c **** void SetBaud(int Baud)
  70:Core/Src/jy62.c **** {
  67              		.loc 1 70 1 is_stmt 1 view -0
  68              		.cfi_startproc
  69              		@ args = 0, pretend = 0, frame = 0
  70              		@ frame_needed = 0, uses_anonymous_args = 0
  71              		.loc 1 70 1 is_stmt 0 view .LVU7
  72 0000 08B5     		push	{r3, lr}
  73              	.LCFI1:
  74              		.cfi_def_cfa_offset 8
  75              		.cfi_offset 3, -8
  76              		.cfi_offset 14, -4
  71:Core/Src/jy62.c ****   if(Baud == 115200)
  77              		.loc 1 71 3 is_stmt 1 view .LVU8
  78              		.loc 1 71 5 is_stmt 0 view .LVU9
  79 0002 B0F5E13F 		cmp	r0, #115200
  80 0006 03D0     		beq	.L9
  72:Core/Src/jy62.c ****   {
  73:Core/Src/jy62.c ****     HAL_UART_Transmit(jy62_huart,setBaud115200, 3, HAL_MAX_DELAY);
  74:Core/Src/jy62.c ****   }
  75:Core/Src/jy62.c ****   else if(Baud == 9600)
  81              		.loc 1 75 8 is_stmt 1 view .LVU10
  82              		.loc 1 75 10 is_stmt 0 view .LVU11
  83 0008 B0F5165F 		cmp	r0, #9600
  84 000c 09D0     		beq	.L10
  85              	.LVL3:
  86              	.L5:
  76:Core/Src/jy62.c ****   {
  77:Core/Src/jy62.c ****     HAL_UART_Transmit(jy62_huart, setBaud115200, 3, HAL_MAX_DELAY);
  78:Core/Src/jy62.c ****   }
  79:Core/Src/jy62.c **** }
  87              		.loc 1 79 1 view .LVU12
  88 000e 08BD     		pop	{r3, pc}
  89              	.LVL4:
  90              	.L9:
  73:Core/Src/jy62.c ****   }
  91              		.loc 1 73 5 is_stmt 1 view .LVU13
  92 0010 4FF0FF33 		mov	r3, #-1
  93 0014 0322     		movs	r2, #3
  94 0016 0749     		ldr	r1, .L11
ARM GAS  C:\Users\22482\AppData\Local\Temp\ccD7kKz3.s 			page 4


  95 0018 0748     		ldr	r0, .L11+4
  96              	.LVL5:
  73:Core/Src/jy62.c ****   }
  97              		.loc 1 73 5 is_stmt 0 view .LVU14
  98 001a 0068     		ldr	r0, [r0]
  99 001c FFF7FEFF 		bl	HAL_UART_Transmit
 100              	.LVL6:
 101 0020 F5E7     		b	.L5
 102              	.LVL7:
 103              	.L10:
  77:Core/Src/jy62.c ****   }
 104              		.loc 1 77 5 is_stmt 1 view .LVU15
 105 0022 4FF0FF33 		mov	r3, #-1
 106 0026 0322     		movs	r2, #3
 107 0028 0249     		ldr	r1, .L11
 108 002a 0348     		ldr	r0, .L11+4
 109              	.LVL8:
  77:Core/Src/jy62.c ****   }
 110              		.loc 1 77 5 is_stmt 0 view .LVU16
 111 002c 0068     		ldr	r0, [r0]
 112 002e FFF7FEFF 		bl	HAL_UART_Transmit
 113              	.LVL9:
 114              		.loc 1 79 1 view .LVU17
 115 0032 ECE7     		b	.L5
 116              	.L12:
 117              		.align	2
 118              	.L11:
 119 0034 00000000 		.word	.LANCHOR2
 120 0038 00000000 		.word	.LANCHOR0
 121              		.cfi_endproc
 122              	.LFE67:
 124              		.section	.text.SetHorizontal,"ax",%progbits
 125              		.align	1
 126              		.global	SetHorizontal
 127              		.syntax unified
 128              		.thumb
 129              		.thumb_func
 131              	SetHorizontal:
 132              	.LFB68:
  80:Core/Src/jy62.c **** 
  81:Core/Src/jy62.c **** void SetHorizontal()
  82:Core/Src/jy62.c **** {
 133              		.loc 1 82 1 is_stmt 1 view -0
 134              		.cfi_startproc
 135              		@ args = 0, pretend = 0, frame = 0
 136              		@ frame_needed = 0, uses_anonymous_args = 0
 137 0000 08B5     		push	{r3, lr}
 138              	.LCFI2:
 139              		.cfi_def_cfa_offset 8
 140              		.cfi_offset 3, -8
 141              		.cfi_offset 14, -4
  83:Core/Src/jy62.c ****   HAL_UART_Transmit(jy62_huart, setHorizontal, 3, HAL_MAX_DELAY);
 142              		.loc 1 83 3 view .LVU19
 143 0002 4FF0FF33 		mov	r3, #-1
 144 0006 0322     		movs	r2, #3
 145 0008 0249     		ldr	r1, .L15
 146 000a 0348     		ldr	r0, .L15+4
ARM GAS  C:\Users\22482\AppData\Local\Temp\ccD7kKz3.s 			page 5


 147 000c 0068     		ldr	r0, [r0]
 148 000e FFF7FEFF 		bl	HAL_UART_Transmit
 149              	.LVL10:
  84:Core/Src/jy62.c **** }
 150              		.loc 1 84 1 is_stmt 0 view .LVU20
 151 0012 08BD     		pop	{r3, pc}
 152              	.L16:
 153              		.align	2
 154              	.L15:
 155 0014 00000000 		.word	.LANCHOR3
 156 0018 00000000 		.word	.LANCHOR0
 157              		.cfi_endproc
 158              	.LFE68:
 160              		.section	.text.SetVertical,"ax",%progbits
 161              		.align	1
 162              		.global	SetVertical
 163              		.syntax unified
 164              		.thumb
 165              		.thumb_func
 167              	SetVertical:
 168              	.LFB69:
  85:Core/Src/jy62.c **** 
  86:Core/Src/jy62.c **** void SetVertical()
  87:Core/Src/jy62.c **** {
 169              		.loc 1 87 1 is_stmt 1 view -0
 170              		.cfi_startproc
 171              		@ args = 0, pretend = 0, frame = 0
 172              		@ frame_needed = 0, uses_anonymous_args = 0
 173 0000 08B5     		push	{r3, lr}
 174              	.LCFI3:
 175              		.cfi_def_cfa_offset 8
 176              		.cfi_offset 3, -8
 177              		.cfi_offset 14, -4
  88:Core/Src/jy62.c ****   HAL_UART_Transmit(jy62_huart, setVertical, 3, HAL_MAX_DELAY);
 178              		.loc 1 88 3 view .LVU22
 179 0002 4FF0FF33 		mov	r3, #-1
 180 0006 0322     		movs	r2, #3
 181 0008 0249     		ldr	r1, .L19
 182 000a 0348     		ldr	r0, .L19+4
 183 000c 0068     		ldr	r0, [r0]
 184 000e FFF7FEFF 		bl	HAL_UART_Transmit
 185              	.LVL11:
  89:Core/Src/jy62.c **** }
 186              		.loc 1 89 1 is_stmt 0 view .LVU23
 187 0012 08BD     		pop	{r3, pc}
 188              	.L20:
 189              		.align	2
 190              	.L19:
 191 0014 00000000 		.word	.LANCHOR4
 192 0018 00000000 		.word	.LANCHOR0
 193              		.cfi_endproc
 194              	.LFE69:
 196              		.section	.text.InitAngle,"ax",%progbits
 197              		.align	1
 198              		.global	InitAngle
 199              		.syntax unified
 200              		.thumb
ARM GAS  C:\Users\22482\AppData\Local\Temp\ccD7kKz3.s 			page 6


 201              		.thumb_func
 203              	InitAngle:
 204              	.LFB70:
  90:Core/Src/jy62.c **** 
  91:Core/Src/jy62.c **** void InitAngle()
  92:Core/Src/jy62.c **** {
 205              		.loc 1 92 1 is_stmt 1 view -0
 206              		.cfi_startproc
 207              		@ args = 0, pretend = 0, frame = 0
 208              		@ frame_needed = 0, uses_anonymous_args = 0
 209 0000 08B5     		push	{r3, lr}
 210              	.LCFI4:
 211              		.cfi_def_cfa_offset 8
 212              		.cfi_offset 3, -8
 213              		.cfi_offset 14, -4
  93:Core/Src/jy62.c ****   HAL_UART_Transmit(jy62_huart, initAngle, 3, HAL_MAX_DELAY);
 214              		.loc 1 93 3 view .LVU25
 215 0002 4FF0FF33 		mov	r3, #-1
 216 0006 0322     		movs	r2, #3
 217 0008 0249     		ldr	r1, .L23
 218 000a 0348     		ldr	r0, .L23+4
 219 000c 0068     		ldr	r0, [r0]
 220 000e FFF7FEFF 		bl	HAL_UART_Transmit
 221              	.LVL12:
  94:Core/Src/jy62.c **** }
 222              		.loc 1 94 1 is_stmt 0 view .LVU26
 223 0012 08BD     		pop	{r3, pc}
 224              	.L24:
 225              		.align	2
 226              	.L23:
 227 0014 00000000 		.word	.LANCHOR5
 228 0018 00000000 		.word	.LANCHOR0
 229              		.cfi_endproc
 230              	.LFE70:
 232              		.section	.text.Calibrate,"ax",%progbits
 233              		.align	1
 234              		.global	Calibrate
 235              		.syntax unified
 236              		.thumb
 237              		.thumb_func
 239              	Calibrate:
 240              	.LFB71:
  95:Core/Src/jy62.c **** 
  96:Core/Src/jy62.c **** void Calibrate()
  97:Core/Src/jy62.c **** {
 241              		.loc 1 97 1 is_stmt 1 view -0
 242              		.cfi_startproc
 243              		@ args = 0, pretend = 0, frame = 0
 244              		@ frame_needed = 0, uses_anonymous_args = 0
 245 0000 08B5     		push	{r3, lr}
 246              	.LCFI5:
 247              		.cfi_def_cfa_offset 8
 248              		.cfi_offset 3, -8
 249              		.cfi_offset 14, -4
  98:Core/Src/jy62.c ****   HAL_UART_Transmit(jy62_huart, calibrateAcce, 3, HAL_MAX_DELAY);
 250              		.loc 1 98 3 view .LVU28
 251 0002 4FF0FF33 		mov	r3, #-1
ARM GAS  C:\Users\22482\AppData\Local\Temp\ccD7kKz3.s 			page 7


 252 0006 0322     		movs	r2, #3
 253 0008 0249     		ldr	r1, .L27
 254 000a 0348     		ldr	r0, .L27+4
 255 000c 0068     		ldr	r0, [r0]
 256 000e FFF7FEFF 		bl	HAL_UART_Transmit
 257              	.LVL13:
  99:Core/Src/jy62.c **** }
 258              		.loc 1 99 1 is_stmt 0 view .LVU29
 259 0012 08BD     		pop	{r3, pc}
 260              	.L28:
 261              		.align	2
 262              	.L27:
 263 0014 00000000 		.word	.LANCHOR6
 264 0018 00000000 		.word	.LANCHOR0
 265              		.cfi_endproc
 266              	.LFE71:
 268              		.section	.text.SleepOrAwake,"ax",%progbits
 269              		.align	1
 270              		.global	SleepOrAwake
 271              		.syntax unified
 272              		.thumb
 273              		.thumb_func
 275              	SleepOrAwake:
 276              	.LFB72:
 100:Core/Src/jy62.c **** 
 101:Core/Src/jy62.c **** void SleepOrAwake()
 102:Core/Src/jy62.c **** {
 277              		.loc 1 102 1 is_stmt 1 view -0
 278              		.cfi_startproc
 279              		@ args = 0, pretend = 0, frame = 0
 280              		@ frame_needed = 0, uses_anonymous_args = 0
 281 0000 08B5     		push	{r3, lr}
 282              	.LCFI6:
 283              		.cfi_def_cfa_offset 8
 284              		.cfi_offset 3, -8
 285              		.cfi_offset 14, -4
 103:Core/Src/jy62.c ****   HAL_UART_Transmit(jy62_huart, sleepAndAwake, 3, HAL_MAX_DELAY);
 286              		.loc 1 103 3 view .LVU31
 287 0002 4FF0FF33 		mov	r3, #-1
 288 0006 0322     		movs	r2, #3
 289 0008 0249     		ldr	r1, .L31
 290 000a 0348     		ldr	r0, .L31+4
 291 000c 0068     		ldr	r0, [r0]
 292 000e FFF7FEFF 		bl	HAL_UART_Transmit
 293              	.LVL14:
 104:Core/Src/jy62.c **** }
 294              		.loc 1 104 1 is_stmt 0 view .LVU32
 295 0012 08BD     		pop	{r3, pc}
 296              	.L32:
 297              		.align	2
 298              	.L31:
 299 0014 00000000 		.word	.LANCHOR7
 300 0018 00000000 		.word	.LANCHOR0
 301              		.cfi_endproc
 302              	.LFE72:
 304              		.section	.text.GetRoll,"ax",%progbits
 305              		.align	1
ARM GAS  C:\Users\22482\AppData\Local\Temp\ccD7kKz3.s 			page 8


 306              		.global	GetRoll
 307              		.syntax unified
 308              		.thumb
 309              		.thumb_func
 311              	GetRoll:
 312              	.LFB73:
 105:Core/Src/jy62.c **** 
 106:Core/Src/jy62.c **** float GetRoll()
 107:Core/Src/jy62.c **** {
 313              		.loc 1 107 1 is_stmt 1 view -0
 314              		.cfi_startproc
 315              		@ args = 0, pretend = 0, frame = 0
 316              		@ frame_needed = 0, uses_anonymous_args = 0
 317              		@ link register save eliminated.
 108:Core/Src/jy62.c ****   return Angle.roll;
 318              		.loc 1 108 3 view .LVU34
 109:Core/Src/jy62.c **** }
 319              		.loc 1 109 1 is_stmt 0 view .LVU35
 320 0000 014B     		ldr	r3, .L34
 321 0002 1868     		ldr	r0, [r3]	@ float
 322 0004 7047     		bx	lr
 323              	.L35:
 324 0006 00BF     		.align	2
 325              	.L34:
 326 0008 00000000 		.word	.LANCHOR8
 327              		.cfi_endproc
 328              	.LFE73:
 330              		.section	.text.GetPitch,"ax",%progbits
 331              		.align	1
 332              		.global	GetPitch
 333              		.syntax unified
 334              		.thumb
 335              		.thumb_func
 337              	GetPitch:
 338              	.LFB74:
 110:Core/Src/jy62.c **** float GetPitch()
 111:Core/Src/jy62.c **** {
 339              		.loc 1 111 1 is_stmt 1 view -0
 340              		.cfi_startproc
 341              		@ args = 0, pretend = 0, frame = 0
 342              		@ frame_needed = 0, uses_anonymous_args = 0
 343              		@ link register save eliminated.
 112:Core/Src/jy62.c ****   return Angle.pitch;
 344              		.loc 1 112 3 view .LVU37
 113:Core/Src/jy62.c **** }
 345              		.loc 1 113 1 is_stmt 0 view .LVU38
 346 0000 014B     		ldr	r3, .L37
 347 0002 5868     		ldr	r0, [r3, #4]	@ float
 348 0004 7047     		bx	lr
 349              	.L38:
 350 0006 00BF     		.align	2
 351              	.L37:
 352 0008 00000000 		.word	.LANCHOR8
 353              		.cfi_endproc
 354              	.LFE74:
 356              		.section	.text.GetYaw,"ax",%progbits
 357              		.align	1
ARM GAS  C:\Users\22482\AppData\Local\Temp\ccD7kKz3.s 			page 9


 358              		.global	GetYaw
 359              		.syntax unified
 360              		.thumb
 361              		.thumb_func
 363              	GetYaw:
 364              	.LFB75:
 114:Core/Src/jy62.c **** float GetYaw()
 115:Core/Src/jy62.c **** {
 365              		.loc 1 115 1 is_stmt 1 view -0
 366              		.cfi_startproc
 367              		@ args = 0, pretend = 0, frame = 0
 368              		@ frame_needed = 0, uses_anonymous_args = 0
 369              		@ link register save eliminated.
 116:Core/Src/jy62.c ****   return Angle.yaw;
 370              		.loc 1 116 3 view .LVU40
 117:Core/Src/jy62.c **** }
 371              		.loc 1 117 1 is_stmt 0 view .LVU41
 372 0000 014B     		ldr	r3, .L40
 373 0002 9868     		ldr	r0, [r3, #8]	@ float
 374 0004 7047     		bx	lr
 375              	.L41:
 376 0006 00BF     		.align	2
 377              	.L40:
 378 0008 00000000 		.word	.LANCHOR8
 379              		.cfi_endproc
 380              	.LFE75:
 382              		.section	.text.GetTemperature,"ax",%progbits
 383              		.align	1
 384              		.global	GetTemperature
 385              		.syntax unified
 386              		.thumb
 387              		.thumb_func
 389              	GetTemperature:
 390              	.LFB76:
 118:Core/Src/jy62.c **** 
 119:Core/Src/jy62.c **** float GetTemperature()
 120:Core/Src/jy62.c **** {
 391              		.loc 1 120 1 is_stmt 1 view -0
 392              		.cfi_startproc
 393              		@ args = 0, pretend = 0, frame = 0
 394              		@ frame_needed = 0, uses_anonymous_args = 0
 395              		@ link register save eliminated.
 121:Core/Src/jy62.c ****   return Temperature.temperature;
 396              		.loc 1 121 3 view .LVU43
 122:Core/Src/jy62.c **** }
 397              		.loc 1 122 1 is_stmt 0 view .LVU44
 398 0000 014B     		ldr	r3, .L43
 399 0002 1868     		ldr	r0, [r3]	@ float
 400 0004 7047     		bx	lr
 401              	.L44:
 402 0006 00BF     		.align	2
 403              	.L43:
 404 0008 00000000 		.word	.LANCHOR9
 405              		.cfi_endproc
 406              	.LFE76:
 408              		.section	.text.GetAccX,"ax",%progbits
 409              		.align	1
ARM GAS  C:\Users\22482\AppData\Local\Temp\ccD7kKz3.s 			page 10


 410              		.global	GetAccX
 411              		.syntax unified
 412              		.thumb
 413              		.thumb_func
 415              	GetAccX:
 416              	.LFB77:
 123:Core/Src/jy62.c **** 
 124:Core/Src/jy62.c **** float GetAccX()
 125:Core/Src/jy62.c **** {
 417              		.loc 1 125 1 is_stmt 1 view -0
 418              		.cfi_startproc
 419              		@ args = 0, pretend = 0, frame = 0
 420              		@ frame_needed = 0, uses_anonymous_args = 0
 421              		@ link register save eliminated.
 126:Core/Src/jy62.c ****   return Accelerate.accelerate_x;
 422              		.loc 1 126 3 view .LVU46
 127:Core/Src/jy62.c **** }
 423              		.loc 1 127 1 is_stmt 0 view .LVU47
 424 0000 014B     		ldr	r3, .L46
 425 0002 1868     		ldr	r0, [r3]	@ float
 426 0004 7047     		bx	lr
 427              	.L47:
 428 0006 00BF     		.align	2
 429              	.L46:
 430 0008 00000000 		.word	.LANCHOR10
 431              		.cfi_endproc
 432              	.LFE77:
 434              		.section	.text.GetAccY,"ax",%progbits
 435              		.align	1
 436              		.global	GetAccY
 437              		.syntax unified
 438              		.thumb
 439              		.thumb_func
 441              	GetAccY:
 442              	.LFB78:
 128:Core/Src/jy62.c **** float GetAccY()
 129:Core/Src/jy62.c **** {
 443              		.loc 1 129 1 is_stmt 1 view -0
 444              		.cfi_startproc
 445              		@ args = 0, pretend = 0, frame = 0
 446              		@ frame_needed = 0, uses_anonymous_args = 0
 447              		@ link register save eliminated.
 130:Core/Src/jy62.c ****   return Accelerate.accelerate_y;
 448              		.loc 1 130 3 view .LVU49
 131:Core/Src/jy62.c **** }
 449              		.loc 1 131 1 is_stmt 0 view .LVU50
 450 0000 014B     		ldr	r3, .L49
 451 0002 5868     		ldr	r0, [r3, #4]	@ float
 452 0004 7047     		bx	lr
 453              	.L50:
 454 0006 00BF     		.align	2
 455              	.L49:
 456 0008 00000000 		.word	.LANCHOR10
 457              		.cfi_endproc
 458              	.LFE78:
 460              		.section	.text.GetAccZ,"ax",%progbits
 461              		.align	1
ARM GAS  C:\Users\22482\AppData\Local\Temp\ccD7kKz3.s 			page 11


 462              		.global	GetAccZ
 463              		.syntax unified
 464              		.thumb
 465              		.thumb_func
 467              	GetAccZ:
 468              	.LFB79:
 132:Core/Src/jy62.c **** float GetAccZ()
 133:Core/Src/jy62.c **** {
 469              		.loc 1 133 1 is_stmt 1 view -0
 470              		.cfi_startproc
 471              		@ args = 0, pretend = 0, frame = 0
 472              		@ frame_needed = 0, uses_anonymous_args = 0
 473              		@ link register save eliminated.
 134:Core/Src/jy62.c ****   return Accelerate.accelerate_z;
 474              		.loc 1 134 3 view .LVU52
 135:Core/Src/jy62.c **** }
 475              		.loc 1 135 1 is_stmt 0 view .LVU53
 476 0000 014B     		ldr	r3, .L52
 477 0002 9868     		ldr	r0, [r3, #8]	@ float
 478 0004 7047     		bx	lr
 479              	.L53:
 480 0006 00BF     		.align	2
 481              	.L52:
 482 0008 00000000 		.word	.LANCHOR10
 483              		.cfi_endproc
 484              	.LFE79:
 486              		.section	.text.GetVeloX,"ax",%progbits
 487              		.align	1
 488              		.global	GetVeloX
 489              		.syntax unified
 490              		.thumb
 491              		.thumb_func
 493              	GetVeloX:
 494              	.LFB80:
 136:Core/Src/jy62.c **** 
 137:Core/Src/jy62.c **** float GetVeloX()
 138:Core/Src/jy62.c **** {
 495              		.loc 1 138 1 is_stmt 1 view -0
 496              		.cfi_startproc
 497              		@ args = 0, pretend = 0, frame = 0
 498              		@ frame_needed = 0, uses_anonymous_args = 0
 499              		@ link register save eliminated.
 139:Core/Src/jy62.c ****   return Velocity.velocity_x;
 500              		.loc 1 139 3 view .LVU55
 140:Core/Src/jy62.c **** }
 501              		.loc 1 140 1 is_stmt 0 view .LVU56
 502 0000 014B     		ldr	r3, .L55
 503 0002 1868     		ldr	r0, [r3]	@ float
 504 0004 7047     		bx	lr
 505              	.L56:
 506 0006 00BF     		.align	2
 507              	.L55:
 508 0008 00000000 		.word	.LANCHOR11
 509              		.cfi_endproc
 510              	.LFE80:
 512              		.section	.text.GetVeloY,"ax",%progbits
 513              		.align	1
ARM GAS  C:\Users\22482\AppData\Local\Temp\ccD7kKz3.s 			page 12


 514              		.global	GetVeloY
 515              		.syntax unified
 516              		.thumb
 517              		.thumb_func
 519              	GetVeloY:
 520              	.LFB81:
 141:Core/Src/jy62.c **** float GetVeloY()
 142:Core/Src/jy62.c **** {
 521              		.loc 1 142 1 is_stmt 1 view -0
 522              		.cfi_startproc
 523              		@ args = 0, pretend = 0, frame = 0
 524              		@ frame_needed = 0, uses_anonymous_args = 0
 525              		@ link register save eliminated.
 143:Core/Src/jy62.c ****   return Velocity.velocity_y;
 526              		.loc 1 143 3 view .LVU58
 144:Core/Src/jy62.c **** }
 527              		.loc 1 144 1 is_stmt 0 view .LVU59
 528 0000 014B     		ldr	r3, .L58
 529 0002 5868     		ldr	r0, [r3, #4]	@ float
 530 0004 7047     		bx	lr
 531              	.L59:
 532 0006 00BF     		.align	2
 533              	.L58:
 534 0008 00000000 		.word	.LANCHOR11
 535              		.cfi_endproc
 536              	.LFE81:
 538              		.section	.text.GetVeloZ,"ax",%progbits
 539              		.align	1
 540              		.global	GetVeloZ
 541              		.syntax unified
 542              		.thumb
 543              		.thumb_func
 545              	GetVeloZ:
 546              	.LFB82:
 145:Core/Src/jy62.c **** float GetVeloZ()
 146:Core/Src/jy62.c **** {
 547              		.loc 1 146 1 is_stmt 1 view -0
 548              		.cfi_startproc
 549              		@ args = 0, pretend = 0, frame = 0
 550              		@ frame_needed = 0, uses_anonymous_args = 0
 551              		@ link register save eliminated.
 147:Core/Src/jy62.c ****   return Velocity.velocity_z;
 552              		.loc 1 147 3 view .LVU61
 148:Core/Src/jy62.c **** }
 553              		.loc 1 148 1 is_stmt 0 view .LVU62
 554 0000 014B     		ldr	r3, .L61
 555 0002 9868     		ldr	r0, [r3, #8]	@ float
 556 0004 7047     		bx	lr
 557              	.L62:
 558 0006 00BF     		.align	2
 559              	.L61:
 560 0008 00000000 		.word	.LANCHOR11
 561              		.cfi_endproc
 562              	.LFE82:
 564              		.global	__aeabi_i2f
 565              		.global	__aeabi_fmul
 566              		.section	.text.DecodeAngle,"ax",%progbits
ARM GAS  C:\Users\22482\AppData\Local\Temp\ccD7kKz3.s 			page 13


 567              		.align	1
 568              		.global	DecodeAngle
 569              		.syntax unified
 570              		.thumb
 571              		.thumb_func
 573              	DecodeAngle:
 574              	.LFB83:
 149:Core/Src/jy62.c **** 
 150:Core/Src/jy62.c **** /***************************************************/
 151:Core/Src/jy62.c **** 
 152:Core/Src/jy62.c **** void DecodeAngle()
 153:Core/Src/jy62.c **** {
 575              		.loc 1 153 1 is_stmt 1 view -0
 576              		.cfi_startproc
 577              		@ args = 0, pretend = 0, frame = 0
 578              		@ frame_needed = 0, uses_anonymous_args = 0
 579 0000 38B5     		push	{r3, r4, r5, lr}
 580              	.LCFI7:
 581              		.cfi_def_cfa_offset 16
 582              		.cfi_offset 3, -16
 583              		.cfi_offset 4, -12
 584              		.cfi_offset 5, -8
 585              		.cfi_offset 14, -4
 154:Core/Src/jy62.c ****   Angle.roll = (float)((jy62Message[3] << 8) | jy62Message[2]) / 32768 * 180;
 586              		.loc 1 154 3 view .LVU64
 587              		.loc 1 154 36 is_stmt 0 view .LVU65
 588 0002 164C     		ldr	r4, .L65
 589 0004 E078     		ldrb	r0, [r4, #3]	@ zero_extendqisi2
 590              		.loc 1 154 59 view .LVU66
 591 0006 A378     		ldrb	r3, [r4, #2]	@ zero_extendqisi2
 592              		.loc 1 154 16 view .LVU67
 593 0008 43EA0020 		orr	r0, r3, r0, lsl #8
 594 000c FFF7FEFF 		bl	__aeabi_i2f
 595              	.LVL15:
 596              		.loc 1 154 64 view .LVU68
 597 0010 4FF06051 		mov	r1, #939524096
 598 0014 FFF7FEFF 		bl	__aeabi_fmul
 599              	.LVL16:
 600              		.loc 1 154 72 view .LVU69
 601 0018 1149     		ldr	r1, .L65+4
 602 001a FFF7FEFF 		bl	__aeabi_fmul
 603              	.LVL17:
 604              		.loc 1 154 14 view .LVU70
 605 001e 114D     		ldr	r5, .L65+8
 606 0020 2860     		str	r0, [r5]	@ float
 155:Core/Src/jy62.c ****   Angle.pitch = (float)((jy62Message[5] << 8) | jy62Message[4]) / 32768 * 180;
 607              		.loc 1 155 3 is_stmt 1 view .LVU71
 608              		.loc 1 155 37 is_stmt 0 view .LVU72
 609 0022 6079     		ldrb	r0, [r4, #5]	@ zero_extendqisi2
 610              		.loc 1 155 60 view .LVU73
 611 0024 2379     		ldrb	r3, [r4, #4]	@ zero_extendqisi2
 612              		.loc 1 155 17 view .LVU74
 613 0026 43EA0020 		orr	r0, r3, r0, lsl #8
 614 002a FFF7FEFF 		bl	__aeabi_i2f
 615              	.LVL18:
 616              		.loc 1 155 65 view .LVU75
 617 002e 4FF06051 		mov	r1, #939524096
ARM GAS  C:\Users\22482\AppData\Local\Temp\ccD7kKz3.s 			page 14


 618 0032 FFF7FEFF 		bl	__aeabi_fmul
 619              	.LVL19:
 620              		.loc 1 155 73 view .LVU76
 621 0036 0A49     		ldr	r1, .L65+4
 622 0038 FFF7FEFF 		bl	__aeabi_fmul
 623              	.LVL20:
 624              		.loc 1 155 15 view .LVU77
 625 003c 6860     		str	r0, [r5, #4]	@ float
 156:Core/Src/jy62.c ****   Angle.yaw = (float)((jy62Message[7] << 8) | jy62Message[6]) / 32768 * 180;
 626              		.loc 1 156 3 is_stmt 1 view .LVU78
 627              		.loc 1 156 35 is_stmt 0 view .LVU79
 628 003e E079     		ldrb	r0, [r4, #7]	@ zero_extendqisi2
 629              		.loc 1 156 58 view .LVU80
 630 0040 A379     		ldrb	r3, [r4, #6]	@ zero_extendqisi2
 631              		.loc 1 156 15 view .LVU81
 632 0042 43EA0020 		orr	r0, r3, r0, lsl #8
 633 0046 FFF7FEFF 		bl	__aeabi_i2f
 634              	.LVL21:
 635              		.loc 1 156 63 view .LVU82
 636 004a 4FF06051 		mov	r1, #939524096
 637 004e FFF7FEFF 		bl	__aeabi_fmul
 638              	.LVL22:
 639              		.loc 1 156 71 view .LVU83
 640 0052 0349     		ldr	r1, .L65+4
 641 0054 FFF7FEFF 		bl	__aeabi_fmul
 642              	.LVL23:
 643              		.loc 1 156 13 view .LVU84
 644 0058 A860     		str	r0, [r5, #8]	@ float
 157:Core/Src/jy62.c **** }
 645              		.loc 1 157 1 view .LVU85
 646 005a 38BD     		pop	{r3, r4, r5, pc}
 647              	.L66:
 648              		.align	2
 649              	.L65:
 650 005c 00000000 		.word	.LANCHOR12
 651 0060 00003443 		.word	1127481344
 652 0064 00000000 		.word	.LANCHOR8
 653              		.cfi_endproc
 654              	.LFE83:
 656              		.global	__aeabi_f2d
 657              		.global	__aeabi_dmul
 658              		.global	__aeabi_d2f
 659              		.section	.text.DecodeAccelerate,"ax",%progbits
 660              		.align	1
 661              		.global	DecodeAccelerate
 662              		.syntax unified
 663              		.thumb
 664              		.thumb_func
 666              	DecodeAccelerate:
 667              	.LFB84:
 158:Core/Src/jy62.c **** 
 159:Core/Src/jy62.c **** void  DecodeAccelerate()
 160:Core/Src/jy62.c **** {
 668              		.loc 1 160 1 is_stmt 1 view -0
 669              		.cfi_startproc
 670              		@ args = 0, pretend = 0, frame = 0
 671              		@ frame_needed = 0, uses_anonymous_args = 0
ARM GAS  C:\Users\22482\AppData\Local\Temp\ccD7kKz3.s 			page 15


 672 0000 38B5     		push	{r3, r4, r5, lr}
 673              	.LCFI8:
 674              		.cfi_def_cfa_offset 16
 675              		.cfi_offset 3, -16
 676              		.cfi_offset 4, -12
 677              		.cfi_offset 5, -8
 678              		.cfi_offset 14, -4
 161:Core/Src/jy62.c ****   Accelerate.accelerate_x = (float)((jy62Message[3] << 8) | jy62Message[2]) / 32768 * 16 * g ;
 679              		.loc 1 161 3 view .LVU87
 680              		.loc 1 161 49 is_stmt 0 view .LVU88
 681 0002 274C     		ldr	r4, .L69+8
 682 0004 E078     		ldrb	r0, [r4, #3]	@ zero_extendqisi2
 683              		.loc 1 161 72 view .LVU89
 684 0006 A378     		ldrb	r3, [r4, #2]	@ zero_extendqisi2
 685              		.loc 1 161 29 view .LVU90
 686 0008 43EA0020 		orr	r0, r3, r0, lsl #8
 687 000c FFF7FEFF 		bl	__aeabi_i2f
 688              	.LVL24:
 689              		.loc 1 161 77 view .LVU91
 690 0010 4FF06051 		mov	r1, #939524096
 691 0014 FFF7FEFF 		bl	__aeabi_fmul
 692              	.LVL25:
 693              		.loc 1 161 85 view .LVU92
 694 0018 4FF08341 		mov	r1, #1098907648
 695 001c FFF7FEFF 		bl	__aeabi_fmul
 696              	.LVL26:
 697 0020 FFF7FEFF 		bl	__aeabi_f2d
 698              	.LVL27:
 699              		.loc 1 161 90 view .LVU93
 700 0024 1CA3     		adr	r3, .L69
 701 0026 D3E90023 		ldrd	r2, [r3]
 702 002a FFF7FEFF 		bl	__aeabi_dmul
 703              	.LVL28:
 704 002e FFF7FEFF 		bl	__aeabi_d2f
 705              	.LVL29:
 706              		.loc 1 161 27 view .LVU94
 707 0032 1C4D     		ldr	r5, .L69+12
 708 0034 2860     		str	r0, [r5]	@ float
 162:Core/Src/jy62.c ****   Accelerate.accelerate_y = (float)((jy62Message[5] << 8) | jy62Message[4]) / 32768 * 16 * g ;
 709              		.loc 1 162 3 is_stmt 1 view .LVU95
 710              		.loc 1 162 49 is_stmt 0 view .LVU96
 711 0036 6079     		ldrb	r0, [r4, #5]	@ zero_extendqisi2
 712              		.loc 1 162 72 view .LVU97
 713 0038 2379     		ldrb	r3, [r4, #4]	@ zero_extendqisi2
 714              		.loc 1 162 29 view .LVU98
 715 003a 43EA0020 		orr	r0, r3, r0, lsl #8
 716 003e FFF7FEFF 		bl	__aeabi_i2f
 717              	.LVL30:
 718              		.loc 1 162 77 view .LVU99
 719 0042 4FF06051 		mov	r1, #939524096
 720 0046 FFF7FEFF 		bl	__aeabi_fmul
 721              	.LVL31:
 722              		.loc 1 162 85 view .LVU100
 723 004a 4FF08341 		mov	r1, #1098907648
 724 004e FFF7FEFF 		bl	__aeabi_fmul
 725              	.LVL32:
 726 0052 FFF7FEFF 		bl	__aeabi_f2d
ARM GAS  C:\Users\22482\AppData\Local\Temp\ccD7kKz3.s 			page 16


 727              	.LVL33:
 728              		.loc 1 162 90 view .LVU101
 729 0056 10A3     		adr	r3, .L69
 730 0058 D3E90023 		ldrd	r2, [r3]
 731 005c FFF7FEFF 		bl	__aeabi_dmul
 732              	.LVL34:
 733 0060 FFF7FEFF 		bl	__aeabi_d2f
 734              	.LVL35:
 735              		.loc 1 162 27 view .LVU102
 736 0064 6860     		str	r0, [r5, #4]	@ float
 163:Core/Src/jy62.c ****   Accelerate.accelerate_z = (float)((jy62Message[7] << 8) | jy62Message[6]) / 32768 * 16 * g ;
 737              		.loc 1 163 3 is_stmt 1 view .LVU103
 738              		.loc 1 163 49 is_stmt 0 view .LVU104
 739 0066 E079     		ldrb	r0, [r4, #7]	@ zero_extendqisi2
 740              		.loc 1 163 72 view .LVU105
 741 0068 A379     		ldrb	r3, [r4, #6]	@ zero_extendqisi2
 742              		.loc 1 163 29 view .LVU106
 743 006a 43EA0020 		orr	r0, r3, r0, lsl #8
 744 006e FFF7FEFF 		bl	__aeabi_i2f
 745              	.LVL36:
 746              		.loc 1 163 77 view .LVU107
 747 0072 4FF06051 		mov	r1, #939524096
 748 0076 FFF7FEFF 		bl	__aeabi_fmul
 749              	.LVL37:
 750              		.loc 1 163 85 view .LVU108
 751 007a 4FF08341 		mov	r1, #1098907648
 752 007e FFF7FEFF 		bl	__aeabi_fmul
 753              	.LVL38:
 754 0082 FFF7FEFF 		bl	__aeabi_f2d
 755              	.LVL39:
 756              		.loc 1 163 90 view .LVU109
 757 0086 04A3     		adr	r3, .L69
 758 0088 D3E90023 		ldrd	r2, [r3]
 759 008c FFF7FEFF 		bl	__aeabi_dmul
 760              	.LVL40:
 761 0090 FFF7FEFF 		bl	__aeabi_d2f
 762              	.LVL41:
 763              		.loc 1 163 27 view .LVU110
 764 0094 A860     		str	r0, [r5, #8]	@ float
 164:Core/Src/jy62.c **** }
 765              		.loc 1 164 1 view .LVU111
 766 0096 38BD     		pop	{r3, r4, r5, pc}
 767              	.L70:
 768              		.align	3
 769              	.L69:
 770 0098 9A999999 		.word	-1717986918
 771 009c 99992340 		.word	1076074905
 772 00a0 00000000 		.word	.LANCHOR12
 773 00a4 00000000 		.word	.LANCHOR10
 774              		.cfi_endproc
 775              	.LFE84:
 777              		.section	.text.DecodeVelocity,"ax",%progbits
 778              		.align	1
 779              		.global	DecodeVelocity
 780              		.syntax unified
 781              		.thumb
 782              		.thumb_func
ARM GAS  C:\Users\22482\AppData\Local\Temp\ccD7kKz3.s 			page 17


 784              	DecodeVelocity:
 785              	.LFB85:
 165:Core/Src/jy62.c **** 
 166:Core/Src/jy62.c **** void DecodeVelocity()
 167:Core/Src/jy62.c **** { 
 786              		.loc 1 167 1 is_stmt 1 view -0
 787              		.cfi_startproc
 788              		@ args = 0, pretend = 0, frame = 0
 789              		@ frame_needed = 0, uses_anonymous_args = 0
 790 0000 38B5     		push	{r3, r4, r5, lr}
 791              	.LCFI9:
 792              		.cfi_def_cfa_offset 16
 793              		.cfi_offset 3, -16
 794              		.cfi_offset 4, -12
 795              		.cfi_offset 5, -8
 796              		.cfi_offset 14, -4
 168:Core/Src/jy62.c ****   Velocity.velocity_x = (float)((jy62Message[3] << 8) | jy62Message[2]) / 32768 * 2000 ;
 797              		.loc 1 168 3 view .LVU113
 798              		.loc 1 168 45 is_stmt 0 view .LVU114
 799 0002 164C     		ldr	r4, .L73
 800 0004 E078     		ldrb	r0, [r4, #3]	@ zero_extendqisi2
 801              		.loc 1 168 68 view .LVU115
 802 0006 A378     		ldrb	r3, [r4, #2]	@ zero_extendqisi2
 803              		.loc 1 168 25 view .LVU116
 804 0008 43EA0020 		orr	r0, r3, r0, lsl #8
 805 000c FFF7FEFF 		bl	__aeabi_i2f
 806              	.LVL42:
 807              		.loc 1 168 73 view .LVU117
 808 0010 4FF06051 		mov	r1, #939524096
 809 0014 FFF7FEFF 		bl	__aeabi_fmul
 810              	.LVL43:
 811              		.loc 1 168 81 view .LVU118
 812 0018 1149     		ldr	r1, .L73+4
 813 001a FFF7FEFF 		bl	__aeabi_fmul
 814              	.LVL44:
 815              		.loc 1 168 23 view .LVU119
 816 001e 114D     		ldr	r5, .L73+8
 817 0020 2860     		str	r0, [r5]	@ float
 169:Core/Src/jy62.c ****   Velocity.velocity_y = (float)((jy62Message[5] << 8) | jy62Message[4]) / 32768 * 2000 ;
 818              		.loc 1 169 3 is_stmt 1 view .LVU120
 819              		.loc 1 169 45 is_stmt 0 view .LVU121
 820 0022 6079     		ldrb	r0, [r4, #5]	@ zero_extendqisi2
 821              		.loc 1 169 68 view .LVU122
 822 0024 2379     		ldrb	r3, [r4, #4]	@ zero_extendqisi2
 823              		.loc 1 169 25 view .LVU123
 824 0026 43EA0020 		orr	r0, r3, r0, lsl #8
 825 002a FFF7FEFF 		bl	__aeabi_i2f
 826              	.LVL45:
 827              		.loc 1 169 73 view .LVU124
 828 002e 4FF06051 		mov	r1, #939524096
 829 0032 FFF7FEFF 		bl	__aeabi_fmul
 830              	.LVL46:
 831              		.loc 1 169 81 view .LVU125
 832 0036 0A49     		ldr	r1, .L73+4
 833 0038 FFF7FEFF 		bl	__aeabi_fmul
 834              	.LVL47:
 835              		.loc 1 169 23 view .LVU126
ARM GAS  C:\Users\22482\AppData\Local\Temp\ccD7kKz3.s 			page 18


 836 003c 6860     		str	r0, [r5, #4]	@ float
 170:Core/Src/jy62.c ****   Velocity.velocity_z = (float)((jy62Message[7] << 8) | jy62Message[6]) / 32768 * 2000 ;
 837              		.loc 1 170 3 is_stmt 1 view .LVU127
 838              		.loc 1 170 45 is_stmt 0 view .LVU128
 839 003e E079     		ldrb	r0, [r4, #7]	@ zero_extendqisi2
 840              		.loc 1 170 68 view .LVU129
 841 0040 A379     		ldrb	r3, [r4, #6]	@ zero_extendqisi2
 842              		.loc 1 170 25 view .LVU130
 843 0042 43EA0020 		orr	r0, r3, r0, lsl #8
 844 0046 FFF7FEFF 		bl	__aeabi_i2f
 845              	.LVL48:
 846              		.loc 1 170 73 view .LVU131
 847 004a 4FF06051 		mov	r1, #939524096
 848 004e FFF7FEFF 		bl	__aeabi_fmul
 849              	.LVL49:
 850              		.loc 1 170 81 view .LVU132
 851 0052 0349     		ldr	r1, .L73+4
 852 0054 FFF7FEFF 		bl	__aeabi_fmul
 853              	.LVL50:
 854              		.loc 1 170 23 view .LVU133
 855 0058 A860     		str	r0, [r5, #8]	@ float
 171:Core/Src/jy62.c **** }
 856              		.loc 1 171 1 view .LVU134
 857 005a 38BD     		pop	{r3, r4, r5, pc}
 858              	.L74:
 859              		.align	2
 860              	.L73:
 861 005c 00000000 		.word	.LANCHOR12
 862 0060 0000FA44 		.word	1157234688
 863 0064 00000000 		.word	.LANCHOR11
 864              		.cfi_endproc
 865              	.LFE85:
 867              		.global	__aeabi_i2d
 868              		.global	__aeabi_dadd
 869              		.section	.text.DecodeTemperature,"ax",%progbits
 870              		.align	1
 871              		.global	DecodeTemperature
 872              		.syntax unified
 873              		.thumb
 874              		.thumb_func
 876              	DecodeTemperature:
 877              	.LFB86:
 172:Core/Src/jy62.c **** 
 173:Core/Src/jy62.c **** void DecodeTemperature()
 174:Core/Src/jy62.c **** {
 878              		.loc 1 174 1 is_stmt 1 view -0
 879              		.cfi_startproc
 880              		@ args = 0, pretend = 0, frame = 0
 881              		@ frame_needed = 0, uses_anonymous_args = 0
 882 0000 08B5     		push	{r3, lr}
 883              	.LCFI10:
 884              		.cfi_def_cfa_offset 8
 885              		.cfi_offset 3, -8
 886              		.cfi_offset 14, -4
 175:Core/Src/jy62.c ****   Temperature.temperature = ((short)(jy62Message[9]) << 8 | jy62Message[8]) / 340 + 36.53;
 887              		.loc 1 175 3 view .LVU136
 888              		.loc 1 175 49 is_stmt 0 view .LVU137
ARM GAS  C:\Users\22482\AppData\Local\Temp\ccD7kKz3.s 			page 19


 889 0002 0D4B     		ldr	r3, .L77+8
 890 0004 5A7A     		ldrb	r2, [r3, #9]	@ zero_extendqisi2
 891              		.loc 1 175 72 view .LVU138
 892 0006 187A     		ldrb	r0, [r3, #8]	@ zero_extendqisi2
 893              		.loc 1 175 59 view .LVU139
 894 0008 40EA0220 		orr	r0, r0, r2, lsl #8
 895              		.loc 1 175 77 view .LVU140
 896 000c 0B4B     		ldr	r3, .L77+12
 897 000e 83FB0030 		smull	r3, r0, r3, r0
 898              		.loc 1 175 83 view .LVU141
 899 0012 C011     		asrs	r0, r0, #7
 900 0014 FFF7FEFF 		bl	__aeabi_i2d
 901              	.LVL51:
 902 0018 05A3     		adr	r3, .L77
 903 001a D3E90023 		ldrd	r2, [r3]
 904 001e FFF7FEFF 		bl	__aeabi_dadd
 905              	.LVL52:
 906 0022 FFF7FEFF 		bl	__aeabi_d2f
 907              	.LVL53:
 908              		.loc 1 175 27 view .LVU142
 909 0026 064B     		ldr	r3, .L77+16
 910 0028 1860     		str	r0, [r3]	@ float
 176:Core/Src/jy62.c **** } 
 911              		.loc 1 176 1 view .LVU143
 912 002a 08BD     		pop	{r3, pc}
 913              	.L78:
 914 002c AFF30080 		.align	3
 915              	.L77:
 916 0030 A4703D0A 		.word	171798692
 917 0034 D7434240 		.word	1078084567
 918 0038 00000000 		.word	.LANCHOR12
 919 003c 61606060 		.word	1616928865
 920 0040 00000000 		.word	.LANCHOR9
 921              		.cfi_endproc
 922              	.LFE86:
 924              		.section	.text.Decode,"ax",%progbits
 925              		.align	1
 926              		.global	Decode
 927              		.syntax unified
 928              		.thumb
 929              		.thumb_func
 931              	Decode:
 932              	.LFB87:
 177:Core/Src/jy62.c **** 
 178:Core/Src/jy62.c **** void Decode()
 179:Core/Src/jy62.c **** {
 933              		.loc 1 179 1 is_stmt 1 view -0
 934              		.cfi_startproc
 935              		@ args = 0, pretend = 0, frame = 0
 936              		@ frame_needed = 0, uses_anonymous_args = 0
 937 0000 08B5     		push	{r3, lr}
 938              	.LCFI11:
 939              		.cfi_def_cfa_offset 8
 940              		.cfi_offset 3, -8
 941              		.cfi_offset 14, -4
 180:Core/Src/jy62.c ****   switch (jy62Message[1])
 942              		.loc 1 180 3 view .LVU145
ARM GAS  C:\Users\22482\AppData\Local\Temp\ccD7kKz3.s 			page 20


 943              		.loc 1 180 22 is_stmt 0 view .LVU146
 944 0002 0A4B     		ldr	r3, .L85
 945 0004 5B78     		ldrb	r3, [r3, #1]	@ zero_extendqisi2
 946 0006 DBB2     		uxtb	r3, r3
 947              		.loc 1 180 3 view .LVU147
 948 0008 522B     		cmp	r3, #82
 949 000a 09D0     		beq	.L80
 950 000c 532B     		cmp	r3, #83
 951 000e 0AD0     		beq	.L81
 952 0010 512B     		cmp	r3, #81
 953 0012 02D0     		beq	.L84
 954              	.L82:
 181:Core/Src/jy62.c ****   {
 182:Core/Src/jy62.c ****     case 0x51: DecodeAccelerate(); break;
 183:Core/Src/jy62.c ****     case 0x52: DecodeVelocity(); break;
 184:Core/Src/jy62.c ****     case 0x53: DecodeAngle(); break;
 185:Core/Src/jy62.c ****   }
 186:Core/Src/jy62.c ****   DecodeTemperature();
 955              		.loc 1 186 3 is_stmt 1 view .LVU148
 956 0014 FFF7FEFF 		bl	DecodeTemperature
 957              	.LVL54:
 187:Core/Src/jy62.c **** }...
 958              		.loc 1 187 1 is_stmt 0 view .LVU149
 959 0018 08BD     		pop	{r3, pc}
 960              	.L84:
 182:Core/Src/jy62.c ****     case 0x51: DecodeAccelerate(); break;
 961              		.loc 1 182 16 is_stmt 1 view .LVU150
 962 001a FFF7FEFF 		bl	DecodeAccelerate
 963              	.LVL55:
 182:Core/Src/jy62.c ****     case 0x51: DecodeAccelerate(); break;
 964              		.loc 1 182 36 view .LVU151
 182:Core/Src/jy62.c ****     case 0x51: DecodeAccelerate(); break;
 965              		.loc 1 182 5 is_stmt 0 view .LVU152
 966 001e F9E7     		b	.L82
 967              	.L80:
 183:Core/Src/jy62.c ****     case 0x52: DecodeVelocity(); break;
 968              		.loc 1 183 16 is_stmt 1 view .LVU153
 969 0020 FFF7FEFF 		bl	DecodeVelocity
 970              	.LVL56:
 183:Core/Src/jy62.c ****     case 0x52: DecodeVelocity(); break;
 971              		.loc 1 183 34 view .LVU154
 183:Core/Src/jy62.c ****     case 0x52: DecodeVelocity(); break;
 972              		.loc 1 183 5 is_stmt 0 view .LVU155
 973 0024 F6E7     		b	.L82
 974              	.L81:
 184:Core/Src/jy62.c ****     case 0x53: DecodeAngle(); break;
 975              		.loc 1 184 16 is_stmt 1 view .LVU156
 976 0026 FFF7FEFF 		bl	DecodeAngle
 977              	.LVL57:
 184:Core/Src/jy62.c ****     case 0x53: DecodeAngle(); break;
 978              		.loc 1 184 31 view .LVU157
 184:Core/Src/jy62.c ****     case 0x53: DecodeAngle(); break;
 979              		.loc 1 184 5 is_stmt 0 view .LVU158
 980 002a F3E7     		b	.L82
 981              	.L86:
 982              		.align	2
 983              	.L85:
ARM GAS  C:\Users\22482\AppData\Local\Temp\ccD7kKz3.s 			page 21


 984 002c 00000000 		.word	.LANCHOR12
 985              		.cfi_endproc
 986              	.LFE87:
 988              		.section	.text.jy62MessageRecord,"ax",%progbits
 989              		.align	1
 990              		.global	jy62MessageRecord
 991              		.syntax unified
 992              		.thumb
 993              		.thumb_func
 995              	jy62MessageRecord:
 996              	.LFB66:
  28:Core/Src/jy62.c **** {
 997              		.loc 1 28 1 is_stmt 1 view -0
 998              		.cfi_startproc
 999              		@ args = 0, pretend = 0, frame = 0
 1000              		@ frame_needed = 0, uses_anonymous_args = 0
 1001 0000 10B5     		push	{r4, lr}
 1002              	.LCFI12:
 1003              		.cfi_def_cfa_offset 8
 1004              		.cfi_offset 4, -8
 1005              		.cfi_offset 14, -4
  29:Core/Src/jy62.c ****   static uint8_t i = 0, sum = 0;
 1006              		.loc 1 29 3 view .LVU160
  30:Core/Src/jy62.c ****   for (int j = 0; j < JY62_MESSAGE_LENGTH; j++){
 1007              		.loc 1 30 3 view .LVU161
 1008              	.LBB2:
  30:Core/Src/jy62.c ****   for (int j = 0; j < JY62_MESSAGE_LENGTH; j++){
 1009              		.loc 1 30 8 view .LVU162
 1010              	.LVL58:
  30:Core/Src/jy62.c ****   for (int j = 0; j < JY62_MESSAGE_LENGTH; j++){
 1011              		.loc 1 30 12 is_stmt 0 view .LVU163
 1012 0002 0024     		movs	r4, #0
  30:Core/Src/jy62.c ****   for (int j = 0; j < JY62_MESSAGE_LENGTH; j++){
 1013              		.loc 1 30 3 view .LVU164
 1014 0004 10E0     		b	.L88
 1015              	.LVL59:
 1016              	.L89:
  32:Core/Src/jy62.c ****     if (i == 10){
 1017              		.loc 1 32 5 is_stmt 1 view .LVU165
  32:Core/Src/jy62.c ****     if (i == 10){
 1018              		.loc 1 32 8 is_stmt 0 view .LVU166
 1019 0006 0A2B     		cmp	r3, #10
 1020 0008 1AD0     		beq	.L95
  41:Core/Src/jy62.c ****     sum += jy62Receive[j];
 1021              		.loc 1 41 5 is_stmt 1 view .LVU167
  41:Core/Src/jy62.c ****     sum += jy62Receive[j];
 1022              		.loc 1 41 23 is_stmt 0 view .LVU168
 1023 000a 1D49     		ldr	r1, .L98
 1024 000c 0A5D     		ldrb	r2, [r1, r4]	@ zero_extendqisi2
  41:Core/Src/jy62.c ****     sum += jy62Receive[j];
 1025              		.loc 1 41 9 view .LVU169
 1026 000e 1D48     		ldr	r0, .L98+4
 1027 0010 90F800C0 		ldrb	ip, [r0]	@ zero_extendqisi2
 1028 0014 6244     		add	r2, r2, ip
 1029 0016 0270     		strb	r2, [r0]
  42:Core/Src/jy62.c ****     jy62Message[i++] = jy62Receive[j];
 1030              		.loc 1 42 5 is_stmt 1 view .LVU170
ARM GAS  C:\Users\22482\AppData\Local\Temp\ccD7kKz3.s 			page 22


  42:Core/Src/jy62.c ****     jy62Message[i++] = jy62Receive[j];
 1031              		.loc 1 42 18 is_stmt 0 view .LVU171
 1032 0018 581C     		adds	r0, r3, #1
 1033 001a 1B4A     		ldr	r2, .L98+8
 1034 001c 1070     		strb	r0, [r2]
  42:Core/Src/jy62.c ****     jy62Message[i++] = jy62Receive[j];
 1035              		.loc 1 42 35 view .LVU172
 1036 001e 0A5D     		ldrb	r2, [r1, r4]	@ zero_extendqisi2
 1037 0020 D2B2     		uxtb	r2, r2
  42:Core/Src/jy62.c ****     jy62Message[i++] = jy62Receive[j];
 1038              		.loc 1 42 22 view .LVU173
 1039 0022 1A49     		ldr	r1, .L98+12
 1040 0024 CA54     		strb	r2, [r1, r3]
 1041              	.L90:
  30:Core/Src/jy62.c ****   for (int j = 0; j < JY62_MESSAGE_LENGTH; j++){
 1042              		.loc 1 30 44 is_stmt 1 discriminator 2 view .LVU174
  30:Core/Src/jy62.c ****   for (int j = 0; j < JY62_MESSAGE_LENGTH; j++){
 1043              		.loc 1 30 45 is_stmt 0 discriminator 2 view .LVU175
 1044 0026 0134     		adds	r4, r4, #1
 1045              	.LVL60:
 1046              	.L88:
  30:Core/Src/jy62.c ****   for (int j = 0; j < JY62_MESSAGE_LENGTH; j++){
 1047              		.loc 1 30 19 is_stmt 1 discriminator 1 view .LVU176
  30:Core/Src/jy62.c ****   for (int j = 0; j < JY62_MESSAGE_LENGTH; j++){
 1048              		.loc 1 30 3 is_stmt 0 discriminator 1 view .LVU177
 1049 0028 0A2C     		cmp	r4, #10
 1050 002a 21DC     		bgt	.L96
  31:Core/Src/jy62.c ****     if (i == 0 && jy62Receive[j] != 0x55) continue;
 1051              		.loc 1 31 5 is_stmt 1 view .LVU178
  31:Core/Src/jy62.c ****     if (i == 0 && jy62Receive[j] != 0x55) continue;
 1052              		.loc 1 31 11 is_stmt 0 view .LVU179
 1053 002c 164B     		ldr	r3, .L98+8
 1054 002e 1B78     		ldrb	r3, [r3]	@ zero_extendqisi2
  31:Core/Src/jy62.c ****     if (i == 0 && jy62Receive[j] != 0x55) continue;
 1055              		.loc 1 31 8 view .LVU180
 1056 0030 002B     		cmp	r3, #0
 1057 0032 E8D1     		bne	.L89
  31:Core/Src/jy62.c ****     if (i == 0 && jy62Receive[j] != 0x55) continue;
 1058              		.loc 1 31 30 discriminator 1 view .LVU181
 1059 0034 124A     		ldr	r2, .L98
 1060 0036 125D     		ldrb	r2, [r2, r4]	@ zero_extendqisi2
 1061 0038 D2B2     		uxtb	r2, r2
  31:Core/Src/jy62.c ****     if (i == 0 && jy62Receive[j] != 0x55) continue;
 1062              		.loc 1 31 16 discriminator 1 view .LVU182
 1063 003a 552A     		cmp	r2, #85
 1064 003c E3D0     		beq	.L89
 1065 003e F2E7     		b	.L90
 1066              	.L95:
  33:Core/Src/jy62.c ****         if (sum == jy62Receive[j]){
 1067              		.loc 1 33 9 is_stmt 1 view .LVU183
  33:Core/Src/jy62.c ****         if (sum == jy62Receive[j]){
 1068              		.loc 1 33 31 is_stmt 0 view .LVU184
 1069 0040 0F4A     		ldr	r2, .L98
 1070 0042 125D     		ldrb	r2, [r2, r4]	@ zero_extendqisi2
 1071 0044 D2B2     		uxtb	r2, r2
  33:Core/Src/jy62.c ****         if (sum == jy62Receive[j]){
 1072              		.loc 1 33 17 view .LVU185
ARM GAS  C:\Users\22482\AppData\Local\Temp\ccD7kKz3.s 			page 23


 1073 0046 0F49     		ldr	r1, .L98+4
 1074 0048 0978     		ldrb	r1, [r1]	@ zero_extendqisi2
  33:Core/Src/jy62.c ****         if (sum == jy62Receive[j]){
 1075              		.loc 1 33 12 view .LVU186
 1076 004a 8A42     		cmp	r2, r1
 1077 004c 05D0     		beq	.L97
 1078              	.L92:
  37:Core/Src/jy62.c ****         i = 0;
 1079              		.loc 1 37 9 is_stmt 1 view .LVU187
  37:Core/Src/jy62.c ****         i = 0;
 1080              		.loc 1 37 11 is_stmt 0 view .LVU188
 1081 004e 0023     		movs	r3, #0
 1082 0050 0D4A     		ldr	r2, .L98+8
 1083 0052 1370     		strb	r3, [r2]
  38:Core/Src/jy62.c ****         sum = 0;
 1084              		.loc 1 38 9 is_stmt 1 view .LVU189
  38:Core/Src/jy62.c ****         sum = 0;
 1085              		.loc 1 38 13 is_stmt 0 view .LVU190
 1086 0054 0B4A     		ldr	r2, .L98+4
 1087 0056 1370     		strb	r3, [r2]
  39:Core/Src/jy62.c ****         continue;
 1088              		.loc 1 39 9 is_stmt 1 view .LVU191
 1089 0058 E5E7     		b	.L90
 1090              	.L97:
  34:Core/Src/jy62.c ****             jy62Message[i++] = jy62Receive[j];
 1091              		.loc 1 34 13 view .LVU192
  34:Core/Src/jy62.c ****             jy62Message[i++] = jy62Receive[j];
 1092              		.loc 1 34 26 is_stmt 0 view .LVU193
 1093 005a 591C     		adds	r1, r3, #1
 1094 005c 0A4A     		ldr	r2, .L98+8
 1095 005e 1170     		strb	r1, [r2]
  34:Core/Src/jy62.c ****             jy62Message[i++] = jy62Receive[j];
 1096              		.loc 1 34 43 view .LVU194
 1097 0060 074A     		ldr	r2, .L98
 1098 0062 125D     		ldrb	r2, [r2, r4]	@ zero_extendqisi2
 1099 0064 D2B2     		uxtb	r2, r2
  34:Core/Src/jy62.c ****             jy62Message[i++] = jy62Receive[j];
 1100              		.loc 1 34 30 view .LVU195
 1101 0066 0949     		ldr	r1, .L98+12
 1102 0068 CA54     		strb	r2, [r1, r3]
  35:Core/Src/jy62.c ****             Decode();
 1103              		.loc 1 35 13 is_stmt 1 view .LVU196
 1104 006a FFF7FEFF 		bl	Decode
 1105              	.LVL61:
 1106 006e EEE7     		b	.L92
 1107              	.L96:
 1108              	.LBE2:
  44:Core/Src/jy62.c ****   HAL_UART_Receive_DMA(jy62_huart, jy62Receive, JY62_MESSAGE_LENGTH);
 1109              		.loc 1 44 3 view .LVU197
 1110 0070 0B22     		movs	r2, #11
 1111 0072 0349     		ldr	r1, .L98
 1112 0074 064B     		ldr	r3, .L98+16
 1113 0076 1868     		ldr	r0, [r3]
 1114 0078 FFF7FEFF 		bl	HAL_UART_Receive_DMA
 1115              	.LVL62:
  45:Core/Src/jy62.c **** }
 1116              		.loc 1 45 1 is_stmt 0 view .LVU198
ARM GAS  C:\Users\22482\AppData\Local\Temp\ccD7kKz3.s 			page 24


 1117 007c 10BD     		pop	{r4, pc}
 1118              	.LVL63:
 1119              	.L99:
  45:Core/Src/jy62.c **** }
 1120              		.loc 1 45 1 view .LVU199
 1121 007e 00BF     		.align	2
 1122              	.L98:
 1123 0080 00000000 		.word	.LANCHOR1
 1124 0084 00000000 		.word	.LANCHOR14
 1125 0088 00000000 		.word	.LANCHOR13
 1126 008c 00000000 		.word	.LANCHOR12
 1127 0090 00000000 		.word	.LANCHOR0
 1128              		.cfi_endproc
 1129              	.LFE66:
 1131              		.global	Temperature
 1132              		.global	Angle
 1133              		.global	Velocity
 1134              		.global	Accelerate
 1135              		.global	jy62_huart
 1136              		.global	sleepAndAwake
 1137              		.global	setVertical
 1138              		.global	setHorizontal
 1139              		.global	setBaud9600
 1140              		.global	setBaud115200
 1141              		.global	calibrateAcce
 1142              		.global	initAngle
 1143              		.global	jy62Message
 1144              		.global	jy62Receive
 1145              		.section	.bss.Accelerate,"aw",%nobits
 1146              		.align	2
 1147              		.set	.LANCHOR10,. + 0
 1150              	Accelerate:
 1151 0000 00000000 		.space	12
 1151      00000000 
 1151      00000000 
 1152              		.section	.bss.Angle,"aw",%nobits
 1153              		.align	2
 1154              		.set	.LANCHOR8,. + 0
 1157              	Angle:
 1158 0000 00000000 		.space	12
 1158      00000000 
 1158      00000000 
 1159              		.section	.bss.Temperature,"aw",%nobits
 1160              		.align	2
 1161              		.set	.LANCHOR9,. + 0
 1164              	Temperature:
 1165 0000 00000000 		.space	4
 1166              		.section	.bss.Velocity,"aw",%nobits
 1167              		.align	2
 1168              		.set	.LANCHOR11,. + 0
 1171              	Velocity:
 1172 0000 00000000 		.space	12
 1172      00000000 
 1172      00000000 
 1173              		.section	.bss.i.1,"aw",%nobits
 1174              		.set	.LANCHOR13,. + 0
 1177              	i.1:
ARM GAS  C:\Users\22482\AppData\Local\Temp\ccD7kKz3.s 			page 25


 1178 0000 00       		.space	1
 1179              		.section	.bss.jy62Message,"aw",%nobits
 1180              		.align	2
 1181              		.set	.LANCHOR12,. + 0
 1184              	jy62Message:
 1185 0000 00000000 		.space	11
 1185      00000000 
 1185      000000
 1186              		.section	.bss.jy62Receive,"aw",%nobits
 1187              		.align	2
 1188              		.set	.LANCHOR1,. + 0
 1191              	jy62Receive:
 1192 0000 00000000 		.space	11
 1192      00000000 
 1192      000000
 1193              		.section	.bss.jy62_huart,"aw",%nobits
 1194              		.align	2
 1195              		.set	.LANCHOR0,. + 0
 1198              	jy62_huart:
 1199 0000 00000000 		.space	4
 1200              		.section	.bss.sum.0,"aw",%nobits
 1201              		.set	.LANCHOR14,. + 0
 1204              	sum.0:
 1205 0000 00       		.space	1
 1206              		.section	.data.calibrateAcce,"aw"
 1207              		.align	2
 1208              		.set	.LANCHOR6,. + 0
 1211              	calibrateAcce:
 1212 0000 FFAA67   		.ascii	"\377\252g"
 1213              		.section	.data.initAngle,"aw"
 1214              		.align	2
 1215              		.set	.LANCHOR5,. + 0
 1218              	initAngle:
 1219 0000 FFAA52   		.ascii	"\377\252R"
 1220              		.section	.data.setBaud115200,"aw"
 1221              		.align	2
 1222              		.set	.LANCHOR2,. + 0
 1225              	setBaud115200:
 1226 0000 FFAA63   		.ascii	"\377\252c"
 1227              		.section	.data.setBaud9600,"aw"
 1228              		.align	2
 1231              	setBaud9600:
 1232 0000 FFAA64   		.ascii	"\377\252d"
 1233              		.section	.data.setHorizontal,"aw"
 1234              		.align	2
 1235              		.set	.LANCHOR3,. + 0
 1238              	setHorizontal:
 1239 0000 FFAA65   		.ascii	"\377\252e"
 1240              		.section	.data.setVertical,"aw"
 1241              		.align	2
 1242              		.set	.LANCHOR4,. + 0
 1245              	setVertical:
 1246 0000 FFAA66   		.ascii	"\377\252f"
 1247              		.section	.data.sleepAndAwake,"aw"
 1248              		.align	2
 1249              		.set	.LANCHOR7,. + 0
 1252              	sleepAndAwake:
ARM GAS  C:\Users\22482\AppData\Local\Temp\ccD7kKz3.s 			page 26


 1253 0000 FFAA60   		.ascii	"\377\252`"
 1254              		.text
 1255              	.Letext0:
 1256              		.file 2 "d:\\program files (x86)\\gnu arm embedded toolchain\\10 2021.10\\arm-none-eabi\\include\\
 1257              		.file 3 "d:\\program files (x86)\\gnu arm embedded toolchain\\10 2021.10\\arm-none-eabi\\include\\
 1258              		.file 4 "Drivers/CMSIS/Device/ST/STM32F1xx/Include/stm32f103xe.h"
 1259              		.file 5 "Drivers/STM32F1xx_HAL_Driver/Inc/stm32f1xx_hal_def.h"
 1260              		.file 6 "Drivers/STM32F1xx_HAL_Driver/Inc/stm32f1xx_hal_dma.h"
 1261              		.file 7 "Drivers/STM32F1xx_HAL_Driver/Inc/stm32f1xx_hal_uart.h"
 1262              		.file 8 "Core/Inc/jy62.h"
ARM GAS  C:\Users\22482\AppData\Local\Temp\ccD7kKz3.s 			page 27

